target datalayout = "e-m:e-p270:32:32-p271:32:32-p272:64:64-i64:64-i128:128-f80:128-n8:16:32:64-S128"
target triple = "x86_64-pc-linux-gnu"

%struct.regex_list = type { ptr, ptr, ptr }

@.str.37 = private unnamed_addr constant [62 x i8] c"add_static_pattern: Cannot allocate memory for regex.pattern\0A\00", align 1

; Function Attrs: nounwind uwtable
define internal i64 @reverse_string(ptr noundef %0) #0 {
  %2 = alloca ptr, align 8
  %3 = alloca i64, align 8
  %4 = alloca i64, align 8
  %5 = alloca i8, align 1
  store ptr %0, ptr %2, align 8, !tbaa !8
  call void @llvm.lifetime.start.p0(i64 8, ptr %3) #11
  %6 = load ptr, ptr %2, align 8, !tbaa !8
  %7 = call i64 @strlen(ptr noundef %6) #12
  store i64 %7, ptr %3, align 8, !tbaa !19
  call void @llvm.lifetime.start.p0(i64 8, ptr %4) #11
  store i64 0, ptr %4, align 8, !tbaa !19
  br label %8

8:                                                ; preds = %35, %1
  %9 = load i64, ptr %4, align 8, !tbaa !19
  %10 = load i64, ptr %3, align 8, !tbaa !19
  %11 = udiv i64 %10, 2
  %12 = icmp ult i64 %9, %11
  br i1 %12, label %13, label %38

13:                                               ; preds = %8
  call void @llvm.lifetime.start.p0(i64 1, ptr %5) #11
  %14 = load ptr, ptr %2, align 8, !tbaa !8
  %15 = load i64, ptr %4, align 8, !tbaa !19
  %16 = getelementptr inbounds nuw i8, ptr %14, i64 %15
  %17 = load i8, ptr %16, align 1, !tbaa !18
  store i8 %17, ptr %5, align 1, !tbaa !18
  %18 = load ptr, ptr %2, align 8, !tbaa !8
  %19 = load i64, ptr %3, align 8, !tbaa !19
  %20 = load i64, ptr %4, align 8, !tbaa !19
  %21 = sub i64 %19, %20
  %22 = sub i64 %21, 1
  %23 = getelementptr inbounds nuw i8, ptr %18, i64 %22
  %24 = load i8, ptr %23, align 1, !tbaa !18
  %25 = load ptr, ptr %2, align 8, !tbaa !8
  %26 = load i64, ptr %4, align 8, !tbaa !19
  %27 = getelementptr inbounds nuw i8, ptr %25, i64 %26
  store i8 %24, ptr %27, align 1, !tbaa !18
  %28 = load i8, ptr %5, align 1, !tbaa !18
  %29 = load ptr, ptr %2, align 8, !tbaa !8
  %30 = load i64, ptr %3, align 8, !tbaa !19
  %31 = load i64, ptr %4, align 8, !tbaa !19
  %32 = sub i64 %30, %31
  %33 = sub i64 %32, 1
  %34 = getelementptr inbounds nuw i8, ptr %29, i64 %33
  store i8 %28, ptr %34, align 1, !tbaa !18
  call void @llvm.lifetime.end.p0(i64 1, ptr %5) #11
  br label %35

35:                                               ; preds = %13
  %36 = load i64, ptr %4, align 8, !tbaa !19
  %37 = add i64 %36, 1
  store i64 %37, ptr %4, align 8, !tbaa !19
  br label %8

38:                                               ; preds = %8
  %39 = load i64, ptr %3, align 8, !tbaa !19
  call void @llvm.lifetime.end.p0(i64 8, ptr %4) #11
  call void @llvm.lifetime.end.p0(i64 8, ptr %3) #11
  ret i64 %39
}

; Function Attrs: nounwind uwtable
define internal i32 @add_static_pattern(ptr noundef %0, ptr noundef %1) #0 {
  %3 = alloca ptr, align 8
  %4 = alloca ptr, align 8
  %5 = alloca i64, align 8
  %6 = alloca %struct.regex_list, align 8
  %7 = alloca i32, align 4
  store ptr %0, ptr %3, align 8, !tbaa !3
  store ptr %1, ptr %4, align 8, !tbaa !8
  call void @llvm.lifetime.start.p0(i64 8, ptr %5) #11
  call void @llvm.lifetime.start.p0(i64 24, ptr %6) #11
  call void @llvm.lifetime.start.p0(i64 4, ptr %7) #11
  store i32 20, ptr %7, align 4, !tbaa !12
  %8 = load ptr, ptr %4, align 8, !tbaa !8
  %9 = call i64 @reverse_string(ptr noundef %8)
  store i64 %9, ptr %5, align 8, !tbaa !19
  %10 = getelementptr inbounds nuw %struct.regex_list, ptr %6, i32 0, i32 2
  store ptr null, ptr %10, align 8, !tbaa !54
  br label %11

11:                                               ; preds = %2
  %12 = load ptr, ptr %4, align 8, !tbaa !8
  %13 = call ptr @cli_safer_strdup(ptr noundef %12)
  %14 = getelementptr inbounds nuw %struct.regex_list, ptr %6, i32 0, i32 0
  store ptr %13, ptr %14, align 8, !tbaa !53
  %15 = getelementptr inbounds nuw %struct.regex_list, ptr %6, i32 0, i32 0
  %16 = load ptr, ptr %15, align 8, !tbaa !53
  %17 = icmp eq ptr null, %16
  br i1 %17, label %18, label %22

18:                                               ; preds = %11
  br label %19

19:                                               ; preds = %18
  call void (ptr, ...) @cli_errmsg(ptr noundef @.str.37)
  store i32 20, ptr %7, align 4, !tbaa !12
  br label %20

20:                                               ; preds = %19
  br label %21

21:                                               ; preds = %20
  br label %30

22:                                               ; preds = %11
  br label %23

23:                                               ; preds = %22
  br label %24

24:                                               ; preds = %23
  %25 = getelementptr inbounds nuw %struct.regex_list, ptr %6, i32 0, i32 1
  store ptr null, ptr %25, align 8, !tbaa !51
  %26 = load ptr, ptr %3, align 8, !tbaa !3
  %27 = load ptr, ptr %4, align 8, !tbaa !8
  %28 = load i64, ptr %5, align 8, !tbaa !19
  %29 = call i32 @add_pattern_suffix(ptr noundef %26, ptr noundef %27, i64 noundef %28, ptr noundef %6)
  store i32 %29, ptr %7, align 4, !tbaa !12
  br label %30

30:                                               ; preds = %24, %21
  br label %31

31:                                               ; preds = %30
  %32 = getelementptr inbounds nuw %struct.regex_list, ptr %6, i32 0, i32 0
  %33 = load ptr, ptr %32, align 8, !tbaa !53
  %34 = icmp ne ptr null, %33
  br i1 %34, label %35, label %39

35:                                               ; preds = %31
  %36 = getelementptr inbounds nuw %struct.regex_list, ptr %6, i32 0, i32 0
  %37 = load ptr, ptr %36, align 8, !tbaa !53
  call void @free(ptr noundef %37) #11
  %38 = getelementptr inbounds nuw %struct.regex_list, ptr %6, i32 0, i32 0
  store ptr null, ptr %38, align 8, !tbaa !53
  br label %39

39:                                               ; preds = %35, %31
  br label %40

40:                                               ; preds = %39
  br label %41

41:                                               ; preds = %40
  %42 = load i32, ptr %7, align 4, !tbaa !12
  call void @llvm.lifetime.end.p0(i64 4, ptr %7) #11
  call void @llvm.lifetime.end.p0(i64 24, ptr %6) #11
  call void @llvm.lifetime.end.p0(i64 8, ptr %5) #11
  ret i32 %42
}