; Function Attrs: nounwind uwtable
define internal fastcc i32 @add_static_pattern(ptr noundef nonnull %0, ptr noundef nonnull %1) unnamed_addr #0 {
  %3 = alloca %struct.regex_list, align 8
  call void @llvm.lifetime.start.p0(i64 24, ptr nonnull %3) #14
  %4 = tail call i64 @strlen(ptr noundef nonnull dereferenceable(1) %1) #15
  %5 = lshr i64 %4, 1
  %.not.i = icmp ult i64 %4, 2
  br i1 %.not.i, label %reverse_string.exit, label %.lr.ph.i

.lr.ph.i:                                         ; preds = %2
  %6 = getelementptr i8, ptr %1, i64 %4
  br label %7

7:                                                ; preds = %7, %.lr.ph.i
  %.015.i = phi i64 [ 0, %.lr.ph.i ], [ %13, %7 ]
  %8 = getelementptr inbounds nuw i8, ptr %1, i64 %.015.i
  %9 = load i8, ptr %8, align 1, !tbaa !10
  %10 = xor i64 %.015.i, -1
  %11 = getelementptr i8, ptr %6, i64 %10
  %12 = load i8, ptr %11, align 1, !tbaa !10
  store i8 %12, ptr %8, align 1, !tbaa !10
  store i8 %9, ptr %11, align 1, !tbaa !10
  %13 = add nuw nsw i64 %.015.i, 1
  %exitcond.not.i = icmp eq i64 %13, %5
  br i1 %exitcond.not.i, label %reverse_string.exit, label %7

reverse_string.exit:                              ; preds = %7, %2
  %14 = getelementptr inbounds nuw i8, ptr %3, i64 16
  store ptr null, ptr %14, align 8, !tbaa !76
  %15 = tail call ptr @cli_safer_strdup(ptr noundef nonnull %1) #14
  store ptr %15, ptr %3, align 8, !tbaa !42
  %16 = icmp eq ptr %15, null
  br i1 %16, label %.thread, label %17

.thread:                                          ; preds = %reverse_string.exit
  tail call void (ptr, ...) @cli_errmsg(ptr noundef nonnull @.str.37) #14
  br label %20

17:                                               ; preds = %reverse_string.exit
  %18 = getelementptr inbounds nuw i8, ptr %3, i64 8
  store ptr null, ptr %18, align 8, !tbaa !40
  %19 = call i32 @add_pattern_suffix(ptr noundef nonnull %0, ptr noundef nonnull %1, i64 noundef %4, ptr noundef nonnull %3)
  call void @free(ptr noundef nonnull %15) #14
  br label %20

20:                                               ; preds = %.thread, %17
  %.07 = phi i32 [ 20, %.thread ], [ %19, %17 ]
  call void @llvm.lifetime.end.p0(i64 24, ptr nonnull %3) #14
  ret i32 %.07
}